; Function Attrs: nounwind uwtable
define ptr @l___private_Lean_Elab_PreDefinition_Structural_BRecOn_0__Lean_Elab_Structural_toBelow(ptr noundef %0, ptr noundef %1, ptr noundef %2, ptr noundef %3, ptr noundef %4, ptr noundef %5, ptr noundef %6, ptr noundef %7, ptr noundef %8, ptr noundef %9) local_unnamed_addr #0 {
  %11 = ptrtoint ptr %4 to i64
  %12 = and i64 %11, 1
  %.not = icmp eq i64 %12, 0
  br i1 %.not, label %13, label %lean_inc.exit34

13:                                               ; preds = %10
  %.val.i = load i32, ptr %4, align 4, !tbaa !8
  %14 = icmp sgt i32 %.val.i, 0
  br i1 %14, label %15, label %17, !prof !11

15:                                               ; preds = %13
  %16 = add nuw i32 %.val.i, 1
  store i32 %16, ptr %4, align 4, !tbaa !8
  br label %lean_inc.exit34

17:                                               ; preds = %13
  %.not.i = icmp eq i32 %.val.i, 0
  br i1 %.not.i, label %lean_inc.exit34, label %18

18:                                               ; preds = %17
  tail call void @lean_inc_ref_cold(ptr noundef nonnull %4) #6
  br label %lean_inc.exit34

lean_inc.exit34:                                  ; preds = %18, %17, %15, %10
  %19 = ptrtoint ptr %0 to i64
  %20 = and i64 %19, 1
  %.not43 = icmp eq i64 %20, 0
  br i1 %.not43, label %21, label %lean_inc.exit33

21:                                               ; preds = %lean_inc.exit34
  %.val.i35 = load i32, ptr %0, align 4, !tbaa !8
  %22 = icmp sgt i32 %.val.i35, 0
  br i1 %22, label %23, label %25, !prof !11

23:                                               ; preds = %21
  %24 = add nuw i32 %.val.i35, 1
  store i32 %24, ptr %0, align 4, !tbaa !8
  br label %lean_inc.exit33

25:                                               ; preds = %21
  %.not.i36 = icmp eq i32 %.val.i35, 0
  br i1 %.not.i36, label %lean_inc.exit33, label %26

26:                                               ; preds = %25
  tail call void @lean_inc_ref_cold(ptr noundef nonnull %0) #6
  br label %lean_inc.exit33

lean_inc.exit33:                                  ; preds = %26, %25, %23, %lean_inc.exit34
  tail call void @lean_inc_heartbeat() #6
  %27 = tail call noalias ptr @mi_malloc_small(i64 noundef 40) #6
  %28 = icmp eq ptr %27, null
  br i1 %28, label %29, label %lean_alloc_closure.exit

29:                                               ; preds = %lean_inc.exit33
  tail call void @lean_internal_panic_out_of_memory() #7
  unreachable

lean_alloc_closure.exit:                          ; preds = %lean_inc.exit33
  %30 = getelementptr inbounds nuw i8, ptr %27, i64 4
  store i32 1, ptr %27, align 4, !tbaa !8
  store i32 -184549336, ptr %30, align 4
  %31 = getelementptr inbounds nuw i8, ptr %27, i64 8
  store ptr @l___private_Lean_Elab_PreDefinition_Structural_BRecOn_0__Lean_Elab_Structural_toBelow___lambda__1___boxed, ptr %31, align 8, !tbaa !4
  %32 = getelementptr inbounds nuw i8, ptr %27, i64 16
  store i16 8, ptr %32, align 8, !tbaa !14
  %33 = getelementptr inbounds nuw i8, ptr %27, i64 18
  store i16 2, ptr %33, align 2, !tbaa !14
  %34 = getelementptr inbounds nuw i8, ptr %27, i64 24
  store ptr %0, ptr %34, align 8, !tbaa !4
  %35 = getelementptr inbounds nuw i8, ptr %27, i64 32
  store ptr %4, ptr %35, align 8, !tbaa !4
  br i1 %.not43, label %36, label %lean_inc.exit

36:                                               ; preds = %lean_alloc_closure.exit
  %.val.i38 = load i32, ptr %0, align 4, !tbaa !8
  %37 = icmp sgt i32 %.val.i38, 0
  br i1 %37, label %38, label %40, !prof !11

38:                                               ; preds = %36
  %39 = add nuw i32 %.val.i38, 1
  store i32 %39, ptr %0, align 4, !tbaa !8
  br label %lean_inc.exit

40:                                               ; preds = %36
  %.not.i39 = icmp eq i32 %.val.i38, 0
  br i1 %.not.i39, label %lean_inc.exit, label %41

41:                                               ; preds = %40
  tail call void @lean_inc_ref_cold(ptr noundef nonnull %0) #6
  br label %lean_inc.exit

lean_inc.exit:                                    ; preds = %41, %40, %38, %lean_alloc_closure.exit
  tail call void @lean_inc_heartbeat() #6
  %42 = tail call noalias ptr @mi_malloc_small(i64 noundef 48) #6
  %43 = icmp eq ptr %42, null
  br i1 %43, label %44, label %lean_alloc_closure.exit41

44:                                               ; preds = %lean_inc.exit
  tail call void @lean_internal_panic_out_of_memory() #7
  unreachable

lean_alloc_closure.exit41:                        ; preds = %lean_inc.exit
  %45 = getelementptr inbounds nuw i8, ptr %42, i64 4
  store i32 1, ptr %42, align 4, !tbaa !8
  store i32 -184549328, ptr %45, align 4
  %46 = getelementptr inbounds nuw i8, ptr %42, i64 8
  store ptr @l___private_Lean_Elab_PreDefinition_Structural_BRecOn_0__Lean_Elab_Structural_toBelow___lambda__2___boxed, ptr %46, align 8, !tbaa !4
  %47 = getelementptr inbounds nuw i8, ptr %42, i64 16
  store i16 10, ptr %47, align 8, !tbaa !14
  %48 = getelementptr inbounds nuw i8, ptr %42, i64 18
  store i16 3, ptr %48, align 2, !tbaa !14
  %49 = getelementptr inbounds nuw i8, ptr %42, i64 24
  store ptr %3, ptr %49, align 8, !tbaa !4
  %50 = getelementptr inbounds nuw i8, ptr %42, i64 32
  store ptr %4, ptr %50, align 8, !tbaa !4
  %51 = getelementptr inbounds nuw i8, ptr %42, i64 40
  store ptr %0, ptr %51, align 8, !tbaa !4
  %52 = load ptr, ptr @l_Lean_instInhabitedExpr, align 8, !tbaa !4
  tail call void @lean_inc_heartbeat() #6
  %53 = tail call noalias ptr @mi_malloc_small(i64 noundef 64) #6
  %54 = icmp eq ptr %53, null
  br i1 %54, label %55, label %lean_alloc_closure.exit42

55:                                               ; preds = %lean_alloc_closure.exit41
  tail call void @lean_internal_panic_out_of_memory() #7
  unreachable

lean_alloc_closure.exit42:                        ; preds = %lean_alloc_closure.exit41
  %56 = getelementptr inbounds nuw i8, ptr %53, i64 4
  store i32 1, ptr %53, align 4, !tbaa !8
  store i32 -184549312, ptr %56, align 4
  %57 = getelementptr inbounds nuw i8, ptr %53, i64 8
  store ptr @l___private_Lean_Elab_PreDefinition_Structural_BRecOn_0__Lean_Elab_Structural_withBelowDict___rarg, ptr %57, align 8, !tbaa !4
  %58 = getelementptr inbounds nuw i8, ptr %53, i64 16
  store i16 10, ptr %58, align 8, !tbaa !14
  %59 = getelementptr inbounds nuw i8, ptr %53, i64 18
  store i16 5, ptr %59, align 2, !tbaa !14
  %60 = getelementptr inbounds nuw i8, ptr %53, i64 24
  store ptr %52, ptr %60, align 8, !tbaa !4
  %61 = getelementptr inbounds nuw i8, ptr %53, i64 32
  store ptr %0, ptr %61, align 8, !tbaa !4
  %62 = getelementptr inbounds nuw i8, ptr %53, i64 40
  store ptr %1, ptr %62, align 8, !tbaa !4
  %63 = getelementptr inbounds nuw i8, ptr %53, i64 48
  store ptr %2, ptr %63, align 8, !tbaa !4
  %64 = getelementptr inbounds nuw i8, ptr %53, i64 56
  store ptr %42, ptr %64, align 8, !tbaa !4
  %65 = load ptr, ptr @l___private_Lean_Elab_PreDefinition_Structural_BRecOn_0__Lean_Elab_Structural_toBelowAux___closed__4, align 8, !tbaa !4
  %66 = load ptr, ptr @l___private_Lean_Elab_PreDefinition_Structural_BRecOn_0__Lean_Elab_Structural_toBelowAux___lambda__4___closed__4, align 8, !tbaa !4
  %67 = tail call ptr @l_Lean_withTraceNode___at_Lean_Meta_whnfImp___spec__1(ptr noundef %65, ptr noundef nonnull %27, ptr noundef nonnull %53, i8 noundef zeroext 1, ptr noundef %66, ptr noundef %5, ptr noundef %6, ptr noundef %7, ptr noundef %8, ptr noundef %9) #6
  ret ptr %67
}